; Function Attrs: nofree nounwind uwtable
define noalias noundef ptr @Acec_ManPoolGetPointed(ptr noundef readonly captures(none) %0, ptr noundef readonly captures(none) %1) local_unnamed_addr #0 {
  %3 = getelementptr i8, ptr %0, i64 24
  %.val = load i32, ptr %3, align 8, !tbaa !3
  %4 = ashr i32 %.val, 5
  %5 = and i32 %.val, 31
  %6 = icmp ne i32 %5, 0
  %7 = zext i1 %6 to i32
  %8 = add nsw i32 %4, %7
  %9 = tail call noalias dereferenceable_or_null(16) ptr @malloc(i64 noundef 16) #19
  %10 = shl nsw i32 %8, 5
  store i32 %10, ptr %9, align 8, !tbaa !47
  %.not.i.i = icmp eq i32 %8, 0
  br i1 %.not.i.i, label %Vec_BitStart.exit, label %11

11:                                               ; preds = %2
  %12 = sext i32 %8 to i64
  %13 = shl nsw i64 %12, 2
  %14 = tail call noalias ptr @malloc(i64 noundef %13) #19
  br label %Vec_BitStart.exit

Vec_BitStart.exit:                                ; preds = %2, %11
  %.pre-phi8.i = phi i64 [ %13, %11 ], [ 0, %2 ]
  %15 = phi ptr [ %14, %11 ], [ null, %2 ]
  %16 = getelementptr inbounds nuw i8, ptr %9, i64 4
  %17 = getelementptr inbounds nuw i8, ptr %9, i64 8
  store ptr %15, ptr %17, align 8, !tbaa !40
  store i32 %10, ptr %16, align 4, !tbaa !48
  tail call void @llvm.memset.p0.i64(ptr align 4 %15, i8 0, i64 %.pre-phi8.i, i1 false)
  %18 = getelementptr i8, ptr %1, i64 4
  %.val12 = load i32, ptr %18, align 4, !tbaa !30
  %19 = icmp sgt i32 %.val12, 0
  br i1 %19, label %.preheader.lr.ph, label %._crit_edge

.preheader.lr.ph:                                 ; preds = %Vec_BitStart.exit
  %20 = getelementptr i8, ptr %1, i64 8
  %.val13 = load ptr, ptr %20, align 8, !tbaa !29
  br label %.preheader

.preheader:                                       ; preds = %.preheader.lr.ph, %32
  %indvars.iv17 = phi i64 [ 0, %.preheader.lr.ph ], [ %indvars.iv.next18, %32 ]
  %21 = phi i64 [ 0, %.preheader.lr.ph ], [ %33, %32 ]
  %22 = and i64 %21, 4294967294
  %invariant.gep = getelementptr inbounds nuw i32, ptr %.val13, i64 %22
  br label %23

23:                                               ; preds = %.preheader, %23
  %indvars.iv = phi i64 [ 0, %.preheader ], [ %indvars.iv.next, %23 ]
  %gep = getelementptr inbounds nuw i32, ptr %invariant.gep, i64 %indvars.iv
  %24 = load i32, ptr %gep, align 4, !tbaa !31
  %25 = and i32 %24, 31
  %26 = shl nuw i32 1, %25
  %27 = ashr i32 %24, 5
  %28 = sext i32 %27 to i64
  %29 = getelementptr inbounds i32, ptr %15, i64 %28
  %30 = load i32, ptr %29, align 4, !tbaa !31
  %31 = or i32 %26, %30
  store i32 %31, ptr %29, align 4, !tbaa !31
  %indvars.iv.next = add nuw nsw i64 %indvars.iv, 1
  %exitcond.not = icmp eq i64 %indvars.iv.next, 3
  br i1 %exitcond.not, label %32, label %23, !llvm.loop !76

32:                                               ; preds = %23
  %indvars.iv.next18 = add nuw nsw i64 %indvars.iv17, 1
  %33 = mul nuw nsw i64 %indvars.iv.next18, 6
  %34 = trunc nuw i64 %33 to i32
  %35 = icmp sgt i32 %.val12, %34
  br i1 %35, label %.preheader, label %._crit_edge, !llvm.loop !77

._crit_edge:                                      ; preds = %32, %Vec_BitStart.exit
  ret ptr %9
}